(lp0
(dp1
S'q'
p2
(lp3
F44.18273237443941
aF0.12681978931028048
aF0.13065279091769155
aF0.27328717560549637
asS's'
p4
(lp5
F236.13784112886475
aF0.42183097171085193
aF0.8428571428571429
aF0.1325301204819277
asS'm'
p6
(lp7
F251.85505967798056
aF0.4857362669460152
aF0.9228579924387239
aF0.3138492001863643
asS'w'
p8
(lp9
F1001.4705280139651
aF0.6021634040679914
aF1.0
aF0.6591760299625469
asS'g'
p10
I23
sa(dp11
S'q'
p12
(lp13
F215.3517330311019
aF0.11780095918537598
aF0.1365527220112136
aF0.30738484141387956
asS's'
p14
(lp15
F277.6913812942725
aF0.4263926849541368
aF0.8195876288659794
aF0.13596491228070173
asS'm'
p16
(lp17
F336.4376067205087
aF0.4878834025338258
aF0.9019607843137255
aF0.32499999999999996
asS'g'
p18
I13
sS'w'
p19
(lp20
F1218.4172323496616
aF0.6350642748036758
aF0.993006993006993
aF0.6767123287671233
asa(dp21
S'q'
p22
(lp23
F107.25343207663275
aF0.11006659538708885
aF0.09537953795379539
aF0.2646634229172127
asS's'
p24
(lp25
F261.47694401229927
aF0.4384895145316684
aF0.8712871287128713
aF0.1847133757961783
asS'm'
p26
(lp27
F294.5807064593965
aF0.4856668395040984
aF0.9241931739029488
aF0.32302936630602785
asS'w'
p28
(lp29
F2449.6035673794427
aF0.5871247920124567
aF1.0
aF0.6818181818181819
asS'g'
p30
I19
sa(dp31
S'q'
p32
(lp33
F45.995163096435135
aF0.08104893559028714
aF0.1145569620253164
aF0.36517341040462425
asS's'
p34
(lp35
F242.03448767290854
aF0.46099327215133623
aF0.8354430379746836
aF0.10982658959537572
asS'm'
p36
(lp37
F269.3718096070759
aF0.5074160109561228
aF0.9069725949186411
aF0.3276836158192091
asS'g'
p38
I21
sS'w'
p39
(lp40
F757.077897413934
aF0.6301171297941665
aF0.9928571428571429
aF0.6713483146067416
asa(dp41
S'q'
p42
(lp43
F190.29697615980297
aF0.10282848604226719
aF0.13099415204678366
aF0.32346256128978645
asS's'
p44
(lp45
F291.56036033888694
aF0.4433972053770217
aF0.8245614035087719
aF0.10471204188481675
asS'm'
p46
(lp47
F332.08981750464574
aF0.5001913883004807
aF0.9152567605436458
aF0.3031440162271805
asS'w'
p48
(lp49
F1423.7590173454548
aF0.6293263415847775
aF0.9921259842519685
aF0.671022290545734
asS'g'
p50
I11
sa(dp51
S'q'
p52
(lp53
F104.24965473017022
aF0.10591538608562173
aF0.0892857142857143
aF0.3894299456098429
asS's'
p54
(lp55
F252.25220749093148
aF0.44836854623350947
aF0.875
aF0.1021897810218978
asS'm'
p56
(lp57
F293.3653507035742
aF0.4931965097816662
aF0.9078014184397163
aF0.2649857084524295
asS'g'
p58
I17
sS'w'
p59
(lp60
F580.2608057682608
aF0.6131503456984266
aF1.0
aF0.6855036855036856
asa(dp61
S'q'
p62
(lp63
F140.51822607576474
aF0.09769030660351546
aF0.141450115418562
aF0.3442397144685737
asS's'
p64
(lp65
F250.22122421086755
aF0.440980683130278
aF0.8300970873786407
aF0.054643182295678966
asS'm'
p66
(lp67
F291.881638526056
aF0.48437720965555087
aF0.9014084507042254
aF0.2774493705528188
asS'w'
p68
(lp69
F1574.3739200935745
aF0.6241938044351318
aF1.0
aF0.6454545454545455
asS'g'
p70
I18
sa(dp71
S'q'
p72
(lp73
F111.02984448923701
aF0.1062383152417698
aF0.12966092749548386
aF0.3262510749275703
asS's'
p74
(lp75
F245.23196697293145
aF0.44743391719970577
aF0.8295227459739039
aF0.07258064516129037
asS'm'
p76
(lp77
F283.1937833721745
aF0.5047660116363619
aF0.8865248226950354
aF0.22857142857142854
asS'g'
p78
I19
sS'w'
p79
(lp80
F655.354646915402
aF0.6540012202147448
aF1.0
aF0.6518691588785046
asa(dp81
S'q'
p82
(lp83
F158.01722115175767
aF0.08894558540280911
aF0.11998610869942694
aF0.3118684961654067
asS's'
p84
(lp85
F287.11255944891025
aF0.4304555002091803
aF0.8461538461538461
aF0.12249103942652328
asS'm'
p86
(lp87
F317.65877519420053
aF0.47922294372927243
aF0.912751677852349
aF0.27755102040816326
asS'w'
p88
(lp89
F1588.1492932336078
aF0.6176630656930907
aF0.9942196531791907
aF0.6265664160401003
asS'g'
p90
I10
sa(dp91
S'q'
p92
(lp93
F67.62275509699026
aF0.10072953118684075
aF0.10203250135344533
aF0.27834883795749776
asS's'
p94
(lp95
F247.40765036656916
aF0.44582644504398733
aF0.8612027927642018
aF0.16282763263073752
asS'm'
p96
(lp97
F277.70282215765224
aF0.4787014685266243
aF0.9156626506024096
aF0.2701533811376572
asS'g'
p98
I20
sS'w'
p99
(lp100
F825.7933556064928
aF0.6326935113870737
aF1.0
aF0.6193548387096774
asa(dp101
S'q'
p102
(lp103
F388.02920637782785
aF0.10735154827959559
aF0.08021577693708848
aF0.3634766432410087
asS's'
p104
(lp105
F247.5338105533122
aF0.44862120422495944
aF0.8770491803278688
aF0.12804878048780488
asS'm'
p106
(lp107
F350.26644029095394
aF0.4945238131011499
aF0.9159604519774012
aF0.3792662051414115
asS'w'
p108
(lp109
F1551.497463746993
aF0.6018972869391377
aF0.9938650306748467
aF0.6588235294117647
asS'g'
p110
I12
sa(dp111
S'q'
p112
(lp113
F113.35741923672464
aF0.12579966727231262
aF0.08622335196048769
aF0.32504905166775677
asS's'
p114
(lp115
F265.11823261720684
aF0.4152037800765974
aF0.8634633133364098
aF0.1294964028776978
asS'm'
p116
(lp117
F315.8580066700362
aF0.470632750455537
aF0.9156626506024096
aF0.2701979234263465
asS'g'
p118
I14
sS'w'
p119
(lp120
F1533.025844619174
aF0.6328529808573458
aF1.0
aF0.6376306620209059
asa(dp121
S'q'
p122
(lp123
F105.65870069137773
aF0.11083119065897151
aF0.1356865097022577
aF0.39305389948772307
asS's'
p124
(lp125
F233.63501208208552
aF0.44789813138152024
aF0.8305297065139585
aF0.1534926470588235
asS'm'
p126
(lp127
F275.30974390971363
aF0.49182554349762053
aF0.91324200913242
aF0.38381510771748023
asS'w'
p128
(lp129
F1094.9575272634559
aF0.6178177447356127
aF0.9920634920634921
aF0.6530054644808743
asS'g'
p130
I17
sa(dp131
S'q'
p132
(lp133
F79.71695024980804
aF0.1006834292351379
aF0.10906399990150895
aF0.3570443495605561
asS's'
p134
(lp135
F243.70415363090595
aF0.454537698586795
aF0.841349223238987
aF0.08576811210999472
asS'm'
p136
(lp137
F275.4738362855085
aF0.5061861306712638
aF0.8984375
aF0.31732914923291494
asS'g'
p138
I22
sS'w'
p139
(lp140
F683.3881916149488
aF0.6104851374812006
aF0.9921875
aF0.5991902834008097
asa(dp141
S'q'
p142
(lp143
F63.910245302964654
aF0.09756769680779848
aF0.11369811801131369
aF0.22004861727299616
asS's'
p144
(lp145
F234.76411158649665
aF0.4306812342755482
aF0.8540438174725573
aF0.1809364370748299
asS'm'
p146
(lp147
F265.8847969085899
aF0.47217493828308227
aF0.9268977802137572
aF0.2791666666666667
asS'w'
p148
(lp149
F707.7218623840687
aF0.6160120239324339
aF1.0
aF0.6625916870415648
asS'g'
p150
I16
sa(dp151
S'q'
p152
(lp153
F101.85891312548424
aF0.08932448624732509
aF0.1142676767676768
aF0.27960474331789253
asS's'
p154
(lp155
F236.1692206197017
aF0.4636541454508168
aF0.8402777777777778
aF0.1329513104937666
asS'm'
p156
(lp157
F266.6850092040262
aF0.500064595146681
aF0.9115646258503401
aF0.31127183406113534
asS'g'
p158
I21
sS'w'
p159
(lp160
F773.491909566199
aF0.6284922974019946
aF1.0
aF0.6455696202531646
asa(dp161
S'q'
p162
(lp163
F68.73815965771658
aF0.07050243642318343
aF0.10810430998018672
aF0.23294447118256872
asS's'
p164
(lp165
F232.85255351280924
aF0.4606159025571329
aF0.8492063492063492
aF0.0854700854700855
asS'm'
p166
(lp167
F260.40248134568446
aF0.49743755051303284
aF0.912907268170426
aF0.23333333333333328
asS'w'
p168
(lp169
F1077.162031618444
aF0.6142941959367306
aF0.9946236559139785
aF0.6213235294117647
asS'g'
p170
I20
sa(dp171
S'q'
p172
(lp173
F91.8221713064975
aF0.07879089610300766
aF0.14617261045832475
aF0.31083911729073016
asS's'
p174
(lp175
F236.48737016347903
aF0.4447207054487619
aF0.8159486016628874
aF0.05405405405405406
asS'm'
p176
(lp177
F278.32806318338385
aF0.4794894330531199
aF0.895828309621413
aF0.2565789473684211
asS'g'
p178
I15
sS'w'
p179
(lp180
F1302.430689629409
aF0.6012789907114727
aF0.9931192660550459
aF0.607250755287009
asa(dp181
S'q'
p182
(lp183
F81.06739678862229
aF0.12854049089882152
aF0.1097402597402598
aF0.3054414414414415
asS's'
p184
(lp185
F248.6625988599537
aF0.42559875141355513
aF0.8545454545454545
aF0.136
asS'm'
p186
(lp187
F274.59298788053707
aF0.49023853732118094
aF0.905511811023622
aF0.3535771796641362
asS'w'
p188
(lp189
F1500.0262811711145
aF0.6120539042469009
aF0.992
aF0.6685878962536023
asS'g'
p190
I18
sa(dp191
S'q'
p192
(lp193
F107.71578608851948
aF0.1119002571201283
aF0.0776470588235294
aF0.2850139455459634
asS's'
p194
(lp195
F248.43878088110753
aF0.44070854023835493
aF0.8823529411764706
aF0.22289156626506024
asS'm'
p196
(lp197
F284.89689791619094
aF0.49505513571260623
aF0.9319351518270715
aF0.3874522379912664
asS'g'
p198
I15
sS'w'
p199
(lp200
F1201.8944923219026
aF0.6086857472649858
aF1.0
aF0.6666666666666667
asa.