(lp0
(dp1
S'q'
p2
(lp3
F630.4958210901264
aF1813.5639858023728
aF15.395527497461615
aF12004.8673347202
aF2.4798927613941015
asS's'
p4
(lp5
F170.36503690066775
aF516.0093726937545
aF22.7162292279547
aF2069.245183577712
aF0.8042895442359249
asS'm'
p6
(lp7
F476.89428117837224
aF1221.5137188402346
aF28.490820128257667
aF6132.854592981554
aF1.876675603217158
asS'w'
p8
(lp9
F998.0138051317167
aF13760.430227651208
aF69.04767826781685
aF168108.25291234558
aF9.919571045576408
asS'g'
p10
I9
sa(dp11
S'q'
p12
(lp13
F609.5633278512464
aF1816.135137834663
aF16.49342303616087
aF11203.732178225686
aF2.4128686327077746
asS's'
p14
(lp15
F210.28824530021643
aF593.2856676444949
aF22.48993428136839
aF2409.246368764265
aF0.8042895442359249
asS'm'
p16
(lp17
F532.6155180134059
aF1373.9076051173943
aF30.208262133098938
aF7110.709155465332
aF2.0107238605898123
asS'g'
p18
I13
sS'w'
p19
(lp20
F999.7346344136747
aF9390.053380380636
aF69.59426122373362
aF197950.9617820619
aF8.579088471849866
asa(dp21
S'q'
p22
(lp23
F579.7199803397317
aF2143.393542357553
aF16.983044378255734
aF13468.612808933014
aF2.680965147453083
asS's'
p24
(lp25
F231.3341869881004
aF672.3176135390881
aF23.641012420056477
aF2752.718529661017
aF0.5361930294906166
asS'm'
p26
(lp27
F549.8679212991689
aF1273.416494222271
aF31.36913921071251
aF6884.000636686498
aF2.0107238605898123
asS'w'
p28
(lp29
F999.6492342727307
aF10688.899410419683
aF74.03082112774898
aF96714.50841523727
aF9.651474530831099
asS'g'
p30
I11
sa(dp31
S'q'
p32
(lp33
F600.1276191162834
aF1726.836630235874
aF16.9401996606069
aF11721.55924994492
aF2.4128686327077746
asS's'
p34
(lp35
F216.717382640598
aF685.2450329666326
aF23.677182321940833
aF3028.072467466026
aF0.8042895442359249
asS'm'
p36
(lp37
F538.4089820679189
aF1235.7440018011857
aF31.567467382988447
aF7044.672374739904
aF1.876675603217158
asS'g'
p38
I10
sS'w'
p39
(lp40
F998.7599474621682
aF14688.584961387656
aF95.78989921262212
aF121239.17886052697
aF10.455764075067025
asa(dp41
S'q'
p42
(lp43
F608.1655039831396
aF1821.236816481412
aF18.39564272175554
aF11304.017586679262
aF2.4128686327077746
asS's'
p44
(lp45
F204.5260027789912
aF591.5354964760372
aF21.678537776216384
aF3201.769986910023
aF0.8042895442359249
asS'm'
p46
(lp47
F531.663853811368
aF1445.6932250002505
aF30.36000140529074
aF6847.927766679773
aF1.876675603217158
asS'w'
p48
(lp49
F997.3387366607293
aF9066.617862850744
aF76.18067398275775
aF113926.25195205025
aF7.774798927613941
asS'g'
p50
I9
sa(dp51
S'q'
p52
(lp53
F672.6405320735112
aF1806.8725860719942
aF16.65326346955296
aF14134.683500405967
aF2.680965147453083
asS's'
p54
(lp55
F153.71151037272517
aF451.6274836544253
aF21.756402374126758
aF1978.0948683604306
aF0.8042895442359249
asS'm'
p56
(lp57
F497.647918053371
aF1219.6051170183043
aF29.58095534559449
aF6221.744017494466
aF2.1447721179624666
asS'g'
p58
I9
sS'w'
p59
(lp60
F997.6766871998962
aF15526.121429658953
aF77.17382768971926
aF135420.3824610649
aF9.115281501340483
asa(dp61
S'q'
p62
(lp63
F670.9864611190967
aF1691.2652316099513
aF15.215239311049757
aF14501.08089940606
aF2.4128686327077746
asS's'
p64
(lp65
F177.5242194770027
aF589.6766211405672
aF22.369152890502157
aF2104.3477151577217
aF1.0723860589812333
asS'm'
p66
(lp67
F500.26811052032883
aF1191.4223102939327
aF28.245933882409737
aF6968.427725702812
aF1.876675603217158
asS'w'
p68
(lp69
F996.9239304209822
aF13032.01391290675
aF95.31675293593287
aF70424.50703543071
aF9.383378016085791
asS'g'
p70
I10
sa(dp71
S'q'
p72
(lp73
F648.4435045012006
aF1812.523804968106
aF17.031799902261454
aF12833.810487422918
aF1.8766756032171583
asS's'
p74
(lp75
F170.77675235511657
aF570.2175131338436
aF22.799913602751957
aF2583.5232728025267
aF1.0723860589812333
asS'm'
p76
(lp77
F529.6570467067033
aF1191.086142857474
aF30.110655027541103
aF6757.808119086178
aF1.876675603217158
asS'g'
p78
I12
sS'w'
p79
(lp80
F998.2331752824759
aF8065.953315345434
aF62.66473577305617
aF263277.9004102733
aF8.579088471849866
asa(dp81
S'q'
p82
(lp83
F709.8680739958704
aF1539.5964638021635
aF16.604534580051368
aF11989.426756478706
aF2.680965147453083
asS's'
p84
(lp85
F135.76970848085392
aF532.0968895211033
aF21.05792020514168
aF2309.1231530323585
aF0.8042895442359249
asS'm'
p86
(lp87
F452.9206292817829
aF1179.758826910825
aF29.141249886262877
aF5970.4967937099955
aF1.876675603217158
asS'w'
p88
(lp89
F996.7930512042115
aF8184.2019412587515
aF74.88308961402721
aF87912.63214096164
aF11.796246648793566
asS'g'
p90
I15
sa(dp91
S'q'
p92
(lp93
F658.1252550820159
aF2018.1210494196057
aF18.8450096740729
aF14106.370585708475
aF2.4128686327077746
asS's'
p94
(lp95
F225.46322415338923
aF680.8396163529819
aF23.23847611003278
aF2713.143385204312
aF0.8042895442359249
asS'm'
p96
(lp97
F537.4913870445425
aF1414.1934043788174
aF32.49351863933808
aF7250.061613005875
aF1.876675603217158
asS'g'
p98
I12
sS'w'
p99
(lp100
F999.5238483314821
aF14097.131334349011
aF81.91683745640879
aF241918.0820016248
aF9.383378016085791
asa(dp101
S'q'
p102
(lp103
F510.2189905740327
aF1675.9419124463536
aF13.509823783347613
aF13454.517874054774
aF2.680965147453083
asS's'
p104
(lp105
F297.2808653234088
aF726.5952684900669
aF24.212293255097123
aF3106.0445793012404
aF0.8042895442359249
asS'm'
p106
(lp107
F584.3849918804884
aF1432.9646220510892
aF30.3660175767515
aF7882.467450589791
aF1.876675603217158
asS'w'
p108
(lp109
F997.7822978234765
aF24462.68305038091
aF87.92806020281522
aF92033.53162836737
aF9.383378016085791
asS'g'
p110
I13
sa(dp111
S'q'
p112
(lp113
F662.6368848563297
aF1906.595010003486
aF16.040921650622636
aF11630.530261532396
aF2.4128686327077746
asS's'
p114
(lp115
F173.83061594838165
aF558.4348306582314
aF22.65985820132149
aF2072.5770763405962
aF0.8042895442359249
asS'm'
p116
(lp117
F486.3124429387325
aF1124.4726568946503
aF31.282308605685813
aF6885.214803059755
aF1.876675603217158
asS'g'
p118
I11
sS'w'
p119
(lp120
F998.5242624451782
aF9465.3895205994
aF74.26220651216218
aF144880.69649816066
aF9.383378016085791
asa(dp121
S'q'
p122
(lp123
F569.9479135276024
aF1665.1565074620719
aF15.835370797628364
aF12543.653840475105
aF2.680965147453083
asS's'
p124
(lp125
F233.71174128156184
aF725.0671062491986
aF23.264265309736977
aF3089.591237999698
aF0.8042895442359249
asS'm'
p126
(lp127
F532.8862025408401
aF1411.2451941008044
aF30.17932738352053
aF7194.934889207777
aF1.876675603217158
asS'w'
p128
(lp129
F998.7548144800957
aF14694.110739622733
aF70.93688128639141
aF133484.31348559787
aF11.528150134048257
asS'g'
p130
I13
sa(dp131
S'q'
p132
(lp133
F638.2195590143908
aF1726.0604017704586
aF15.743482706041462
aF12121.32307541744
aF2.4128686327077746
asS's'
p134
(lp135
F211.57404637047378
aF562.8729588924431
aF23.17840257396236
aF2564.2148928108586
aF0.8042895442359249
asS'm'
p136
(lp137
F482.382815481532
aF1229.2264446263682
aF28.99447078861521
aF6124.89239886388
aF1.876675603217158
asS'g'
p138
I13
sS'w'
p139
(lp140
F998.2569887651106
aF11513.091529380603
aF78.31333171533674
aF158687.8063426142
aF8.310991957104557
asa(dp141
S'q'
p142
(lp143
F570.5786224577928
aF2066.4664621265924
aF13.987557895329505
aF10099.807662644016
aF2.4128686327077746
asS's'
p144
(lp145
F213.23564169631794
aF583.327637844574
aF23.862119949189474
aF2761.0509785639974
aF0.8042895442359249
asS'm'
p146
(lp147
F512.9587207816465
aF1299.1389710489434
aF30.622041124887712
aF6486.695105703275
aF1.876675603217158
asS'w'
p148
(lp149
F999.8461373309291
aF22251.79243707557
aF72.47584585518548
aF323440.630948002
aF9.919571045576408
asS'g'
p150
I14
sa(dp151
S'q'
p152
(lp153
F553.451435687635
aF1603.8057813619534
aF13.656733752116285
aF10719.718760739876
aF2.2117962466487935
asS's'
p154
(lp155
F264.4518634238507
aF644.1321492863726
aF23.66478458277346
aF3240.4068265952587
aF1.0053619302949062
asS'm'
p156
(lp157
F528.0401109066111
aF1363.0342232484818
aF29.811310535859487
aF7304.958348282533
aF1.876675603217158
asS'g'
p158
I17
sS'w'
p159
(lp160
F997.1631278883609
aF20049.48061151732
aF81.16125614508087
aF213139.5075505445
aF13.404825737265416
asa(dp161
S'q'
p162
(lp163
F619.5682763625575
aF1329.3634135148882
aF14.330841759750463
aF11967.852099930446
aF2.680965147453083
asS's'
p164
(lp165
F164.42521899280254
aF557.0126151919197
aF21.886914047237212
aF2644.510446131101
aF0.8042895442359249
asS'm'
p166
(lp167
F423.7125415861818
aF1003.7626829525511
aF29.11009227142722
aF5529.908436184032
aF1.876675603217158
asS'w'
p168
(lp169
F995.8629698436831
aF18206.103383749545
aF76.47514871239991
aF121699.39868494686
aF11.528150134048257
asS'g'
p170
I14
sa(dp171
S'q'
p172
(lp173
F653.3029076331911
aF1902.413597792981
aF14.052385276778246
aF15199.417886249112
aF3.5522788203753355
asS's'
p174
(lp175
F176.5875436557797
aF544.8702100293472
aF21.883170372309806
aF2327.265736572905
aF0.8042895442359249
asS'm'
p176
(lp177
F502.2004305835065
aF1243.3302797015722
aF27.95296805894372
aF5707.558378041764
aF2.1447721179624666
asS'g'
p178
I11
sS'w'
p179
(lp180
F999.9092420235049
aF19572.356140745786
aF86.3374598313909
aF168113.30560250184
aF10.455764075067025
asa(dp181
S'q'
p182
(lp183
F698.0174440805182
aF2075.49475012126
aF18.014350348295256
aF11417.213619186256
aF2.1447721179624666
asS's'
p184
(lp185
F136.7438327981982
aF465.6512648942941
aF22.204368558687346
aF2159.8407394335954
aF0.8042895442359249
asS'm'
p186
(lp187
F475.4326959801273
aF1123.8092367020952
aF30.223446299814036
aF6093.773646958138
aF1.876675603217158
asS'w'
p188
(lp189
F987.0468715609283
aF12170.54505310351
aF65.79154606071027
aF114843.40955470203
aF9.651474530831099
asS'g'
p190
I24
sa(dp191
S'q'
p192
(lp193
F635.8130196336675
aF1602.6130211666182
aF16.660699418522267
aF12151.369830759122
aF2.4128686327077746
asS's'
p194
(lp195
F193.78262626467884
aF605.300875945467
aF23.12286973192445
aF2337.3185171243704
aF0.8042895442359249
asS'm'
p196
(lp197
F501.08645637832655
aF1290.5603703119612
aF28.963888952189325
aF6750.608848576951
aF1.876675603217158
asS'g'
p198
I19
sS'w'
p199
(lp200
F995.863296465069
aF15893.35395787184
aF70.81264599147245
aF126822.06376528754
aF10.187667560321715
asa.