(lp0
(dp1
S'q'
p2
(lp3
F586.1747144057474
aF1943.6458709747671
aF15.514723672313213
aF14348.671549599629
aF2.144772117962466
asS's'
p4
(lp5
F267.5522950990869
aF641.6706455981054
aF24.41160676287718
aF3092.318292643103
aF1.0723860589812333
asS'm'
p6
(lp7
F557.2166107570606
aF1452.6929313020269
aF31.84211054721708
aF8464.421400199974
aF1.876675603217158
asS'w'
p8
(lp9
F998.8742911249664
aF11878.594888431771
aF90.39769175333751
aF98525.61671394341
aF10.99195710455764
asS'g'
p10
I14
sa(dp11
S'q'
p12
(lp13
F669.6348114445697
aF1878.9419787777915
aF16.47450004151402
aF12654.181505106768
aF2.4128686327077746
asS's'
p14
(lp15
F198.11066019245024
aF624.368088566512
aF24.098015180096247
aF2352.814200204635
aF0.8042895442359249
asS'm'
p16
(lp17
F568.6021160186182
aF1174.2350799007277
aF30.129844836192525
aF6381.085587845046
aF1.876675603217158
asS'g'
p18
I11
sS'w'
p19
(lp20
F999.4731561456337
aF12835.49068838606
aF80.83748877548062
aF362441.0674441571
aF9.383378016085791
asa(dp21
S'q'
p22
(lp23
F585.1718439035601
aF1741.9017738268521
aF15.631378178875377
aF10797.553860196556
aF2.1447721179624666
asS's'
p24
(lp25
F232.0402602464376
aF618.8222131918824
aF23.245530549324645
aF2703.883712320775
aF0.8042895442359249
asS'm'
p26
(lp27
F521.455414279302
aF1159.5489682704656
aF31.549858274302878
aF6343.969266941526
aF1.876675603217158
asS'w'
p28
(lp29
F997.9885684129018
aF10939.582848968841
aF74.34458494906045
aF128096.59728176658
aF8.310991957104557
asS'g'
p30
I21
sa(dp31
S'q'
p32
(lp33
F670.1207906581607
aF1885.697903916508
aF15.776060758359954
aF12092.65612046082
aF2.4128686327077746
asS's'
p34
(lp35
F161.08970424564913
aF570.1342621469131
aF23.251640894760953
aF2146.724888094328
aF1.0723860589812333
asS'm'
p36
(lp37
F532.6181794462728
aF1290.2825874324517
aF29.69049371154887
aF6156.943718374387
aF1.876675603217158
asS'g'
p38
I8
sS'w'
p39
(lp40
F992.7054296079075
aF13666.60241811497
aF73.29880356081443
aF155770.06619439487
aF14.20911528150134
asa(dp41
S'q'
p42
(lp43
F650.7794837614163
aF1537.570472069744
aF14.572889201952204
aF12330.39579970298
aF2.680965147453083
asS's'
p44
(lp45
F177.2983973430508
aF603.9888186570053
aF22.34795063939473
aF2949.230944741509
aF1.0723860589812333
asS'm'
p46
(lp47
F476.75342101391595
aF1173.0633280496727
aF28.75770140287878
aF6642.630137107513
aF2.1447721179624666
asS'w'
p48
(lp49
F998.078986638622
aF10309.894967997874
aF75.94924070355088
aF86943.38948460792
aF10.455764075067025
asS'g'
p50
I24
sa(dp51
S'q'
p52
(lp53
F617.9699959525857
aF1839.390502678612
aF16.322921207180077
aF12709.3650148183
aF2.680965147453083
asS's'
p54
(lp55
F203.86431695141073
aF605.2883456235933
aF22.11968858890683
aF2392.447508458992
aF0.8042895442359249
asS'm'
p56
(lp57
F509.80006775919446
aF1147.3259327391847
aF29.872592585585828
aF5736.8043377670965
aF1.876675603217158
asS'g'
p58
I13
sS'w'
p59
(lp60
F996.6269690035309
aF17245.839748165203
aF77.2319006913549
aF253112.20582061316
aF9.651474530831099
asa(dp61
S'q'
p62
(lp63
F556.4968032244303
aF1658.0272455304857
aF13.60706159035222
aF11353.880350700088
aF2.1447721179624666
asS's'
p64
(lp65
F262.6920515279943
aF609.1334672954814
aF24.588191990784242
aF2740.0978473986843
aF0.8042895442359249
asS'm'
p66
(lp67
F501.6489967997219
aF1246.8270793956317
aF31.48243966801486
aF6503.785458114479
aF1.876675603217158
asS'w'
p68
(lp69
F999.8990888804431
aF10816.809793695242
aF82.67805512517286
aF156436.6883711904
aF9.383378016085791
asS'g'
p70
I15
sa(dp71
S'q'
p72
(lp73
F660.4826485292336
aF1634.4368137828442
aF17.26519894789105
aF14154.515889904224
aF2.680965147453083
asS's'
p74
(lp75
F162.8942533343719
aF558.3743921086481
aF22.105534802594967
aF2480.608411402825
aF0.8042895442359249
asS'm'
p76
(lp77
F476.84589938418594
aF1183.340388376279
aF28.979154645242357
aF6331.700228175549
aF1.876675603217158
asS'g'
p78
I13
sS'w'
p79
(lp80
F999.8694262254228
aF18366.663595653798
aF72.32326823789495
aF193871.1269591812
aF12.332439678284182
asa(dp81
S'q'
p82
(lp83
F697.6418628168707
aF1958.7487283531764
aF17.860696678959282
aF15289.013964610725
aF2.4128686327077746
asS's'
p84
(lp85
F169.1964219058385
aF538.1541835446078
aF22.420788729443263
aF2187.822502997076
aF0.8042895442359249
asS'm'
p86
(lp87
F531.2607935188812
aF1174.551071729792
aF30.48868946836506
aF6270.658529789952
aF1.7426273458445039
asS'w'
p88
(lp89
F999.3683628911888
aF10903.603963076763
aF85.76431674020446
aF124542.94152072605
aF10.99195710455764
asS'g'
p90
I31
sa(dp91
S'q'
p92
(lp93
F483.8057455499526
aF1466.6616129311662
aF14.621248102771347
aF14524.54087358589
aF2.2117962466487935
asS's'
p94
(lp95
F276.18784207778776
aF672.822355389191
aF24.44961558521163
aF2747.467965318878
aF0.8042895442359249
asS'm'
p96
(lp97
F504.1842166111557
aF1316.2372656777532
aF30.905415380778585
aF7395.972748691202
aF1.876675603217158
asS'g'
p98
I15
sS'w'
p99
(lp100
F997.9932728393595
aF18741.03491047065
aF74.21705713838544
aF129321.66744781115
aF9.115281501340483
asa(dp101
S'q'
p102
(lp103
F646.2169406741757
aF1844.5855381768372
aF14.49635823531096
aF12846.642244988592
aF2.4128686327077746
asS's'
p104
(lp105
F176.43400159417143
aF560.373581694734
aF22.924507064593524
aF2318.413424139957
aF0.8042895442359249
asS'm'
p106
(lp107
F451.1156046006675
aF1163.9078249178895
aF28.903946376130413
aF6283.168131845053
aF1.876675603217158
asS'w'
p108
(lp109
F999.7741723546867
aF14178.461255005037
aF93.05740062145031
aF203124.2588808462
aF11.796246648793566
asS'g'
p110
I34
sa(dp111
S'q'
p112
(lp113
F642.5235625437545
aF1889.771508774571
aF17.3992248683383
aF13845.858599501264
aF2.680965147453083
asS's'
p114
(lp115
F173.58528001086762
aF533.2264090881546
aF22.577486159153054
aF2357.747056525482
aF0.8042895442359249
asS'm'
p116
(lp117
F484.3393380149659
aF1247.0658295937476
aF30.02561787580406
aF6738.426712038734
aF1.876675603217158
asS'g'
p118
I23
sS'w'
p119
(lp120
F999.9985427297116
aF9771.737049250594
aF69.9186306698465
aF170652.4022278259
aF12.064343163538874
asa(dp121
S'q'
p122
(lp123
F640.4107716665553
aF1634.967170177805
aF18.12318537038638
aF9015.55975769847
aF2.9490616621983916
asS's'
p124
(lp125
F155.86824887923132
aF485.90650813857854
aF22.080113558184962
aF2393.252804481962
aF0.5361930294906166
asS'm'
p126
(lp127
F502.50986815232835
aF1188.005630620161
aF28.682917969404787
aF6089.7306773628625
aF1.876675603217158
asS'w'
p128
(lp129
F998.6534577440331
aF16950.38719915931
aF78.99572146177684
aF152054.69075702692
aF10.455764075067025
asS'g'
p130
I29
sa(dp131
S'q'
p132
(lp133
F647.6610389224296
aF1764.8245179541445
aF15.61737700920024
aF12610.192491490645
aF2.680965147453083
asS's'
p134
(lp135
F159.55070246923324
aF479.54565473997127
aF21.340250945586916
aF2064.6837620316737
aF0.8042895442359249
asS'm'
p136
(lp137
F432.6348694197117
aF1161.7155318897708
aF29.128939682779496
aF6390.520219798387
aF1.876675603217158
asS'g'
p138
I16
sS'w'
p139
(lp140
F998.8527594285492
aF8907.328962678357
aF60.82421124367871
aF107638.28964106711
aF9.651474530831099
asa(dp141
S'q'
p142
(lp143
F631.8098412187474
aF1808.7628860585007
aF16.606222785085
aF13756.919989772487
aF2.949061662198391
asS's'
p144
(lp145
F213.34705859018754
aF656.8719018843624
aF22.94624626469494
aF2434.7052365606387
aF0.8042895442359249
asS'm'
p146
(lp147
F519.7701950035322
aF1239.574070068699
aF30.30442883883074
aF6596.171161509929
aF1.876675603217158
asS'w'
p148
(lp149
F996.7221444288633
aF9308.162426088937
aF73.07960850430041
aF175537.59995160688
aF9.919571045576408
asS'g'
p150
I10
sa(dp151
S'q'
p152
(lp153
F662.6530914990142
aF2102.020350926776
aF17.81415883700365
aF14065.22584376354
aF2.680965147453083
asS's'
p154
(lp155
F180.916818628145
aF506.99570374075097
aF22.532599180232648
aF2375.09526184824
aF0.8042895442359249
asS'm'
p156
(lp157
F585.1364231998534
aF1376.172138162929
aF29.28022410171234
aF6691.947827976767
aF1.876675603217158
asS'g'
p158
I15
sS'w'
p159
(lp160
F995.4379863052367
aF10833.993071655264
aF84.9107827586572
aF117273.22150551778
aF9.115281501340483
asa(dp161
S'q'
p162
(lp163
F581.6834930490897
aF1584.9849206819115
aF16.591031305444
aF12523.953955674415
aF2.4128686327077746
asS's'
p164
(lp165
F218.85286688432092
aF708.1184423629009
aF23.883255290472338
aF2613.08155571739
aF0.8042895442359249
asS'm'
p166
(lp167
F513.9453454021105
aF1256.2612703486193
aF31.40507638591319
aF6476.5297410644425
aF1.876675603217158
asS'w'
p168
(lp169
F997.7413615684522
aF10296.354720638665
aF75.8858286082277
aF88566.19907960102
aF8.579088471849866
asS'g'
p170
I15
sa(dp171
S'q'
p172
(lp173
F637.7692154699414
aF1964.482127885818
aF16.906499624862132
aF14438.128559899867
aF2.949061662198391
asS's'
p174
(lp175
F206.78719906928586
aF550.7438884930242
aF22.52372788019399
aF2422.510804334966
aF0.8042895442359249
asS'm'
p176
(lp177
F526.5453164109197
aF1349.3239542969936
aF29.922381538291305
aF7320.824354889263
aF2.1447721179624666
asS'g'
p178
I11
sS'w'
p179
(lp180
F999.3703194034157
aF12447.916637998007
aF74.2150151274874
aF144098.41359702605
aF11.26005361930295
asa(dp181
S'q'
p182
(lp183
F517.1565762305918
aF1655.3795604398792
aF15.939674701212034
aF10527.387303941552
aF2.4798927613941015
asS's'
p184
(lp185
F228.8472869480109
aF674.9973864770394
aF24.39544852858056
aF2803.2899041376886
aF0.8042895442359249
asS'm'
p186
(lp187
F520.6978531882984
aF1344.2431871302138
aF31.934344439227768
aF6363.355315203067
aF1.876675603217158
asS'w'
p188
(lp189
F992.1993926945678
aF8872.431368777545
aF77.3599173413711
aF81085.56536855237
aF8.310991957104557
asS'g'
p190
I12
sa(dp191
S'q'
p192
(lp193
F610.7801959739385
aF1491.9639283132296
aF17.683459786414936
aF9890.502518970805
aF2.4128686327077746
asS's'
p194
(lp195
F226.99414967528753
aF701.3102777083377
aF23.315635756836777
aF2815.254709559289
aF0.8042895442359249
asS'm'
p196
(lp197
F537.0118323984439
aF1281.4421440235824
aF29.79940328659301
aF6482.040729833448
aF1.876675603217158
asS'g'
p198
I22
sS'w'
p199
(lp200
F999.9873167998879
aF10372.47340589293
aF68.44611758839895
aF167845.47322768794
aF8.04289544235925
asa.