(lp0
(dp1
S'q'
p2
(lp3
F762.9646879415837
aF11.784938137540252
aF7621.457705638922
aF1.876675603217158
asS's'
p4
(lp5
F605.0048428075933
aF22.854685184429577
aF2573.9387468407067
aF0.5361930294906166
asS'm'
p6
(lp7
F885.2494933186476
aF28.41911222052618
aF5436.115935985537
aF1.6085790884718498
asS'w'
p8
(lp9
F4483.285058650009
aF54.006753940637196
aF41671.84570872046
aF7.238605898123325
asS'g'
p10
I9
sa(dp11
S'q'
p12
(lp13
F1015.3202324118606
aF17.12873454798349
aF6550.52050274266
aF2.949061662198391
asS's'
p14
(lp15
F340.35012270455826
aF20.50609596246383
aF1850.089047962079
aF0.8042895442359249
asS'm'
p16
(lp17
F786.20814907721
aF28.105685724488502
aF4694.849423860327
aF1.876675603217158
asS'g'
p18
I14
sS'w'
p19
(lp20
F6628.80502130019
aF75.36939113623657
aF32821.33105470905
aF7.774798927613941
asa(dp21
S'q'
p22
(lp23
F1139.9226629964655
aF8.832226744171106
aF11761.888274250334
aF2.680965147453083
asS's'
p24
(lp25
F634.3749367024644
aF23.660251200531615
aF2395.220845645078
aF0.8042895442359249
asS'm'
p26
(lp27
F1050.4491624861
aF26.855575809671706
aF6743.079960447405
aF1.7426273458445039
asS'w'
p28
(lp29
F4243.339730588204
aF55.48221431538863
aF55719.56940015647
aF9.115281501340483
asS'g'
p30
I14
sa(dp31
S'q'
p32
(lp33
F1065.0482422673228
aF17.51994758288276
aF5831.167985735462
aF2.680965147453083
asS's'
p34
(lp35
F694.1993304755542
aF22.752973676741743
aF2606.5330745803376
aF0.5361930294906166
asS'm'
p36
(lp37
F1179.9968219578768
aF30.841390417167908
aF4902.90009173046
aF1.2064343163538873
asS'g'
p38
I18
sS'w'
p39
(lp40
F7356.758980146842
aF73.14619392125053
aF85792.18245963134
aF8.579088471849866
asa(dp41
S'q'
p42
(lp43
F1268.0496311736856
aF15.429919842003866
aF7127.30320703078
aF2.278820375335121
asS's'
p44
(lp45
F574.3391182588921
aF22.56810160093821
aF2025.4434580938155
aF0.5361930294906166
asS'm'
p46
(lp47
F1171.1182994129194
aF30.640764855835606
aF6463.798173821593
aF1.6085790884718498
asS'w'
p48
(lp49
F3822.7685458902374
aF54.09124353242555
aF68771.50031631514
aF7.774798927613941
asS'g'
p50
I13
sa(dp51
S'q'
p52
(lp53
F858.2234618711776
aF16.219945101939935
aF6998.584401625991
aF2.949061662198391
asS's'
p54
(lp55
F618.1675934366805
aF21.143557349182444
aF1812.6936264828398
aF0.2680965147453083
asS'm'
p56
(lp57
F989.8008176531212
aF26.409133310073678
aF5728.35175565278
aF1.6085790884718498
asS'g'
p58
I6
sS'w'
p59
(lp60
F4559.350520073105
aF61.0987722758356
aF70489.68547312771
aF9.651474530831099
asa(dp61
S'q'
p62
(lp63
F1259.7399252977189
aF17.182098586655787
aF7129.075306651493
aF2.680965147453083
asS's'
p64
(lp65
F739.1721432452047
aF20.978099480438896
aF2870.3922629749713
aF0.8042895442359249
asS'm'
p66
(lp67
F1060.9277516232692
aF27.821717840558215
aF5222.457524990991
aF2.1447721179624666
asS'w'
p68
(lp69
F3899.8937693437274
aF60.222451687425746
aF76308.03120607586
aF10.723860589812332
asS'g'
p70
I11
sa(dp71
S'q'
p72
(lp73
F1312.8847824356471
aF15.008092398730817
aF8773.483616247082
aF1.3404825737265413
asS's'
p74
(lp75
F567.0880042141847
aF22.94137461871513
aF1751.3264096595765
aF1.0723860589812333
asS'm'
p76
(lp77
F963.8487401316065
aF30.909065913859664
aF4338.704885365814
aF1.6085790884718498
asS'g'
p78
I9
sS'w'
p79
(lp80
F6958.752457922582
aF78.20306534267277
aF86357.97348324457
aF4.557640750670242
asa(dp81
S'q'
p82
(lp83
F1519.3426655242256
aF17.817060103210093
aF9519.875600753583
aF1.9436997319034854
asS's'
p84
(lp85
F359.99606324375424
aF20.978532774634086
aF2527.058968106272
aF0.5361930294906166
asS'm'
p86
(lp87
F1000.5723840058098
aF27.835453486301454
aF4495.160576408294
aF1.6085790884718498
asS'w'
p88
(lp89
F7681.275154333072
aF67.06276903429348
aF81983.2644815057
aF9.115281501340483
asS'g'
p90
I10
sa(dp91
S'q'
p92
(lp93
F1308.7439530113888
aF22.65664268880319
aF7713.012968696718
aF2.1447721179624666
asS's'
p94
(lp95
F433.3845466904032
aF19.35813284851352
aF2008.0559502452786
aF0.5361930294906166
asS'm'
p96
(lp97
F952.3621115232027
aF28.192203115842034
aF5137.641125166283
aF1.3404825737265416
asS'g'
p98
I17
sS'w'
p99
(lp100
F5991.205933359008
aF68.46750752729281
aF39836.816810831326
aF10.723860589812332
asa(dp101
S'q'
p102
(lp103
F910.0504556445737
aF21.983789839643652
aF6111.304988680755
aF2.1447721179624666
asS's'
p104
(lp105
F471.10325583045613
aF20.823764440210763
aF1997.1280152667687
aF0.8042895442359249
asS'm'
p106
(lp107
F896.8282262878313
aF32.03109076209684
aF4815.1519475808545
aF1.3404825737265416
asS'w'
p108
(lp109
F5104.829390732701
aF56.2298211075139
aF28584.566201212714
aF9.115281501340483
asS'g'
p110
I10
sa(dp111
S'q'
p112
(lp113
F865.6597573235898
aF14.892434980911133
aF5690.932979260244
aF3.083109919571046
asS's'
p114
(lp115
F502.25175014737454
aF21.673274158490187
aF2218.1945797008266
aF0.5361930294906166
asS'm'
p116
(lp117
F891.7153389631792
aF29.406332231290445
aF4838.374307031008
aF1.6085790884718498
asS'g'
p118
I7
sS'w'
p119
(lp120
F6413.535818527924
aF49.82873602804952
aF44991.14805010207
aF8.579088471849866
asa(dp121
S'q'
p122
(lp123
F1161.4587013344983
aF14.047247965174776
aF7638.0643309681
aF3.2171581769436997
asS's'
p124
(lp125
F400.09216471104065
aF21.73516673420658
aF2290.070735381936
aF0.2680965147453083
asS'm'
p126
(lp127
F844.1509800227541
aF27.199649250695145
aF4156.692548716991
aF1.2064343163538873
asS'w'
p128
(lp129
F8156.048054479171
aF50.873163454111044
aF51334.19622909925
aF6.970509383378016
asS'g'
p130
I9
sa(dp131
S'q'
p132
(lp133
F941.8693047723506
aF12.285634344859265
aF5868.800580168122
aF2.680965147453083
asS's'
p134
(lp135
F412.3543739639905
aF21.7095363600337
aF1833.6615407351308
aF0.5361930294906166
asS'm'
p136
(lp137
F884.5365610584093
aF28.41226221941178
aF3741.8745760225665
aF1.7426273458445039
asS'g'
p138
I15
sS'w'
p139
(lp140
F5289.45916920127
aF67.87220851429035
aF34350.399611106855
aF9.115281501340483
asa(dp141
S'q'
p142
(lp143
F1034.45053968515
aF11.00530083735918
aF7333.6842945680655
aF2.1447721179624666
asS's'
p144
(lp145
F520.2207545698813
aF22.193556725431513
aF1801.4660139968219
aF0.5361930294906166
asS'm'
p146
(lp147
F1182.6061449175713
aF28.744287197397707
aF4754.1389554397865
aF1.6085790884718498
asS'w'
p148
(lp149
F3970.251756182596
aF52.32760495096852
aF29753.103252967783
aF8.579088471849866
asS'g'
p150
I11
sa(dp151
S'q'
p152
(lp153
F1454.3667299788472
aF20.922233458643365
aF9942.96067039977
aF1.3404825737265416
asS's'
p154
(lp155
F549.3059811704882
aF19.246589622361437
aF2249.680998111672
aF0.5361930294906166
asS'm'
p156
(lp157
F1069.1524388680928
aF29.8182990112634
aF4336.182692168839
aF1.3404825737265416
asS'g'
p158
I15
sS'w'
p159
(lp160
F7630.254385869512
aF76.74122016578953
aF57800.70465966588
aF5.093833780160858
asa(dp161
S'q'
p162
(lp163
F1226.4729210164592
aF15.240002937575444
aF8929.82506330973
aF1.8766756032171583
asS's'
p164
(lp165
F706.9519420627465
aF25.147571793442612
aF4278.398927535838
aF1.0723860589812333
asS'm'
p166
(lp167
F1216.551410799018
aF28.993127582241975
aF6708.560811472544
aF1.3404825737265416
asS'w'
p168
(lp169
F5952.003133201048
aF54.864042932499494
aF33935.819126913346
aF7.238605898123325
asS'g'
p170
I12
sa(dp171
S'q'
p172
(lp173
F1156.406560617785
aF12.398829611288797
aF9392.58173073735
aF2.680965147453083
asS's'
p174
(lp175
F621.5773464532439
aF22.836351023898644
aF2456.824507095876
aF0.5361930294906166
asS'm'
p176
(lp177
F925.3406016488814
aF27.456779429888837
aF5686.927816792704
aF1.6085790884718498
asS'g'
p178
I24
sS'w'
p179
(lp180
F4615.656306872892
aF63.157725018140894
aF73215.86305161718
aF8.04289544235925
asa(dp181
S'q'
p182
(lp183
F991.233919280765
aF13.115511863564578
aF4341.166115194267
aF1.876675603217158
asS's'
p184
(lp185
F677.9085415048852
aF21.76647961125485
aF3062.8726971716596
aF0.8042895442359249
asS'm'
p186
(lp187
F949.4725547920508
aF29.62232709113178
aF3938.597079444544
aF1.4745308310991958
asS'w'
p188
(lp189
F6430.517474027309
aF54.625662151913
aF34338.910102738635
aF8.04289544235925
asS'g'
p190
I11
sa(dp191
S'q'
p192
(lp193
F1560.3187257690024
aF16.564602822046787
aF6357.005505170568
aF1.876675603217158
asS's'
p194
(lp195
F621.39395505109
aF23.94875071092779
aF3684.665071034017
aF0.8042895442359249
asS'm'
p196
(lp197
F1288.3655376444653
aF28.008660440045187
aF5412.019511005526
aF1.3404825737265416
asS'g'
p198
I8
sS'w'
p199
(lp200
F3890.1505680716996
aF67.23341034929217
aF31725.59174436013
aF7.774798927613941
asa.