(lp0
(dp1
S'q'
p2
(lp3
F777.2387974682758
aF0.06935433791567658
aF0.07326007326007333
aF0.35996240601503754
asS's'
p4
(lp5
F1850.733224513088
aF0.9220163716161951
aF0.8511904761904762
aF0.0
asS'm'
p6
(lp7
F2108.566983242157
aF0.9779800139089994
aF0.8888888888888888
aF0.18181818181818177
asS'w'
p8
(lp9
F21538.8701926585
aF0.9998757107575921
aF1.0
aF0.8235294117647058
asS'g'
p10
I18
sa(dp11
S'q'
p12
(lp13
F668.071313030322
aF0.05277852127549998
aF0.13417317976141507
aF0.4375
asS's'
p14
(lp15
F1770.814681189911
aF0.9392033396442844
aF0.7680995475113123
aF0.0
asS'm'
p16
(lp17
F2072.8611645687474
aF0.9833417704097126
aF0.8571428571428571
aF0.12916666666666665
asS'g'
p18
I16
sS'w'
p19
(lp20
F4699.4513072279415
aF1.0
aF1.0
aF0.6470588235294117
asa(dp21
S'q'
p22
(lp23
F1109.862213264341
aF0.03419073900644487
aF0.09688718763541815
aF0.3139204545454546
asS's'
p24
(lp25
F1929.3242283483871
aF0.9560266980959226
aF0.8596345514950167
aF0.0
asS'm'
p26
(lp27
F2417.344885894864
aF0.9832019867227202
aF0.9090909090909091
aF0.125
asS'w'
p28
(lp29
F8080.908082923077
aF0.9970497703821446
aF1.0
aF0.7307692307692308
asS'g'
p30
I24
sa(dp31
S'q'
p32
(lp33
F751.5303679908668
aF0.047293952502543424
aF0.1222519310754604
aF0.3199174406604747
asS's'
p34
(lp35
F1808.8421987921622
aF0.9417247522931029
aF0.822192513368984
aF0.052631578947368474
asS'm'
p36
(lp37
F2247.779457433669
aF0.980929912889564
aF0.9090909090909091
aF0.1833333333333333
asS'g'
p38
I19
sS'w'
p39
(lp40
F22960.781635623123
aF0.9964410808321419
aF1.0
aF0.65
asa(dp41
S'q'
p42
(lp43
F992.9626581175212
aF0.018414343837068636
aF0.1428571428571428
aF0.2914089284029314
asS's'
p44
(lp45
F1851.8825332415704
aF0.9722445981498675
aF0.8333333333333334
aF0.10031347962382445
asS'm'
p46
(lp47
F2119.7668629578584
aF0.9856706046029943
aF0.9166666666666666
aF0.20416666666666666
asS'w'
p48
(lp49
F13872.14986332521
aF0.9990409543990779
aF1.0
aF0.65
asS'g'
p50
I22
sa(dp51
S'q'
p52
(lp53
F611.1517643070706
aF0.16291329974722113
aF0.11038961038961037
aF0.2947368421052632
asS's'
p54
(lp55
F1798.6285677535516
aF0.8264948066059223
aF0.8181818181818182
aF0.10526315789473684
asS'm'
p56
(lp57
F2052.3918760643373
aF0.9747497483528583
aF0.8888888888888888
aF0.23863636363636365
asS'g'
p58
I16
sS'w'
p59
(lp60
F6819.615920962727
aF1.0
aF1.0
aF0.6129032258064516
asa(dp61
S'q'
p62
(lp63
F1297.0420280866765
aF0.01947720767372063
aF0.1336032388663968
aF0.35416666666666663
asS's'
p64
(lp65
F1887.2150397468213
aF0.9682700151649053
aF0.7894736842105263
aF0.08333333333333337
asS'm'
p66
(lp67
F2207.571218710248
aF0.9817932105536749
aF0.8571428571428571
aF0.2833333333333333
asS'w'
p68
(lp69
F8563.362615352487
aF0.9986541257324996
aF1.0
aF0.8
asS'g'
p70
I14
sa(dp71
S'q'
p72
(lp73
F821.1196152817504
aF0.11728036495622063
aF0.1758064516129032
aF0.47198879551820727
asS's'
p74
(lp75
F1918.8940667438635
aF0.8687909775396954
aF0.8
aF0.0
asS'm'
p76
(lp77
F2320.3702811529147
aF0.9607022332075642
aF0.9
aF0.23076923076923073
asS'g'
p78
I14
sS'w'
p79
(lp80
F18114.69500258619
aF1.0
aF1.0
aF0.75
asa(dp81
S'q'
p82
(lp83
F689.7358245057458
aF0.049081889721805605
aF0.11429308565531471
aF0.4117647058823529
asS's'
p84
(lp85
F1948.4272554429726
aF0.9364490893905142
aF0.8308823529411764
aF0.0
asS'm'
p86
(lp87
F2224.607399538345
aF0.9777810044295068
aF0.8944444444444444
aF0.25742574257425743
asS'w'
p88
(lp89
F12247.181867846419
aF0.9968923256510975
aF1.0
aF0.6153846153846154
asS'g'
p90
I20
sa(dp91
S'q'
p92
(lp93
F835.7480938008102
aF0.03190926043015918
aF0.05986533957845441
aF0.3100108225108225
asS's'
p94
(lp95
F1945.9215646526072
aF0.9606183087661907
aF0.8571428571428571
aF0.09415584415584416
asS'm'
p96
(lp97
F2256.3084552699725
aF0.9813913521278277
aF0.8888888888888888
aF0.2666666666666667
asS'g'
p98
I18
sS'w'
p99
(lp100
F24042.617886110416
aF0.9981397106027684
aF1.0
aF0.6842105263157895
asa(dp101
S'q'
p102
(lp103
F5069.208045865772
aF0.049812094752817115
aF0.1076058201058201
aF0.261904761904762
asS's'
p104
(lp105
F2016.0004924563164
aF0.9378572229602062
aF0.8553571428571428
aF0.0714285714285714
asS'm'
p106
(lp107
F3055.765465140961
aF0.9808780342206925
aF0.9045454545454545
aF0.21163682864450128
asS'w'
p108
(lp109
F25748.266625052533
aF0.9998750785560114
aF1.0
aF0.65
asS'g'
p110
I16
sa(dp111
S'q'
p112
(lp113
F1595.274713849956
aF0.07932285289449337
aF0.15934065934065933
aF0.29885057471264376
asS's'
p114
(lp115
F1988.7295856804433
aF0.9105806378663917
aF0.7692307692307693
aF0.03448275862068961
asS'm'
p116
(lp117
F2617.164788400376
aF0.975654085206513
aF0.8638888888888889
aF0.15000000000000002
asS'g'
p118
I14
sS'w'
p119
(lp120
F18203.862588020722
aF0.9968575537484955
aF1.0
aF0.75
asa(dp121
S'q'
p122
(lp123
F1362.2268868072379
aF0.031028633792579696
aF0.1440217391304348
aF0.30000000000000004
asS's'
p124
(lp125
F1947.1640506178956
aF0.9590878941983003
aF0.8125
aF0.0
asS'm'
p126
(lp127
F2438.4021165733257
aF0.9851552166826593
aF0.8918128654970761
aF0.18614718614718612
asS'w'
p128
(lp129
F8350.067207245262
aF0.9956532858492281
aF1.0
aF0.5333333333333333
asS'g'
p130
I15
sa(dp131
S'q'
p132
(lp133
F828.081958326304
aF0.058972472355902084
aF0.09659090909090906
aF0.4041666666666667
asS's'
p134
(lp135
F1961.7332583031855
aF0.9320200960388436
aF0.8125
aF0.0
asS'm'
p136
(lp137
F2283.485822670599
aF0.9809390262126358
aF0.8733974358974359
aF0.25
asS'g'
p138
I17
sS'w'
p139
(lp140
F16920.263116749495
aF0.9953539700224745
aF1.0
aF0.6470588235294117
asa(dp141
S'q'
p142
(lp143
F651.5786556384546
aF0.033994532846783776
aF0.11666666666666659
aF0.375
asS's'
p144
(lp145
F1648.842414534669
aF0.9592254618716636
aF0.8
aF0.0
asS'm'
p146
(lp147
F1934.4363879800321
aF0.9890404667526553
aF0.875
aF0.16666666666666663
asS'w'
p148
(lp149
F5443.98418747159
aF0.9994773171825903
aF1.0
aF0.7692307692307692
asS'g'
p150
I24
sa(dp151
S'q'
p152
(lp153
F690.2095103302831
aF0.056592826504585414
aF0.14444444444444438
aF0.4585561497326204
asS's'
p154
(lp155
F1723.3840010521212
aF0.9328542397316959
aF0.8
aF0.0
asS'm'
p156
(lp157
F2045.3939578422712
aF0.9787594526845806
aF0.9
aF0.24
asS'g'
p158
I18
sS'w'
p159
(lp160
F7392.893317111832
aF0.997424727776506
aF1.0
aF0.75
asa(dp161
S'q'
p162
(lp163
F825.8237469930004
aF0.019667302008887888
aF0.09613327848621966
aF0.30153846153846153
asS's'
p164
(lp165
F1633.4756969036625
aF0.9735658286478919
aF0.8391608391608392
aF0.16000000000000003
asS'm'
p166
(lp167
F1867.748000128762
aF0.9878629408541469
aF0.9047619047619048
aF0.3086080586080586
asS'w'
p168
(lp169
F22832.93178739356
aF0.9979000517681555
aF1.0
aF0.7647058823529411
asS'g'
p170
I29
sa(dp171
S'q'
p172
(lp173
F853.8582782052349
aF0.014233592780900639
aF0.1428571428571429
aF0.25980691056910565
asS's'
p174
(lp175
F1780.1412024607648
aF0.9789587129862944
aF0.8571428571428571
aF0.10833333333333336
asS'm'
p176
(lp177
F2096.329303039014
aF0.9899036990837409
aF0.9090909090909091
aF0.2222222222222222
asS'g'
p178
I30
sS'w'
p179
(lp180
F10405.065375303637
aF1.0
aF1.0
aF0.625
asa(dp181
S'q'
p182
(lp183
F642.2634175308394
aF0.0368428167054512
aF0.11038961038961037
aF0.41693163751987283
asS's'
p184
(lp185
F1597.426313804231
aF0.9562201038344258
aF0.8181818181818182
aF0.0
asS'm'
p186
(lp187
F2016.727232965373
aF0.9881373934664914
aF0.875
aF0.19090909090909086
asS'w'
p188
(lp189
F11654.23922753227
aF0.9997044841346513
aF1.0
aF0.8333333333333334
asS'g'
p190
I27
sa(dp191
S'q'
p192
(lp193
F820.1657219859158
aF0.061186980598477825
aF0.09902159244264497
aF0.36542325641690443
asS's'
p194
(lp195
F1807.3669045966058
aF0.9282395088559866
aF0.8461538461538461
aF0.03448275862068961
asS'm'
p196
(lp197
F2120.882347832084
aF0.9778465858840262
aF0.8823529411764706
aF0.25
asS'g'
p198
I17
sS'w'
p199
(lp200
F5727.790081773947
aF0.9985881599733586
aF1.0
aF0.7083333333333333
asa.