(lp0
(dp1
S'q'
p2
(lp3
F192.45662421765687
aF0.11610316239914348
aF0.08408759124087584
aF0.33922741231614684
asS's'
p4
(lp5
F243.86759298583203
aF0.44143264334479787
aF0.8759124087591241
aF0.12173913043478257
asS'm'
p6
(lp7
F289.7632336084358
aF0.5006932052174575
aF0.9172673061965257
aF0.28104575163398693
asS'w'
p8
(lp9
F1968.3265510905192
aF0.6535685580321998
aF1.0
aF0.7
asS'g'
p10
I24
sa(dp11
S'q'
p12
(lp13
F155.84253444687056
aF0.10408270350200904
aF0.09486784007742088
aF0.3280486522898002
asS's'
p14
(lp15
F244.6404535172794
aF0.44138123373552335
aF0.8682634730538922
aF0.1523809523809524
asS'm'
p16
(lp17
F286.06414969719293
aF0.49616524718796146
aF0.9233219010289074
aF0.33191368540601934
asS'g'
p18
I19
sS'w'
p19
(lp20
F1985.0955577787977
aF0.6418119216179731
aF0.9956236323851203
aF0.6982758620689655
asa(dp21
S'q'
p22
(lp23
F334.13846860236504
aF0.10318108482044114
aF0.14065371762740186
aF0.32384778298738665
asS's'
p24
(lp25
F250.4385561424783
aF0.43367873782702965
aF0.8222222222222222
aF0.0901639344262295
asS'm'
p26
(lp27
F317.5430661166995
aF0.4811288831326874
aF0.9058503229074333
aF0.2784026581343835
asS'w'
p28
(lp29
F2344.535924239189
aF0.6113415853459662
aF1.0
aF0.6788732394366197
asS'g'
p30
I14
sa(dp31
S'q'
p32
(lp33
F159.28727548704913
aF0.11855919735650927
aF0.09380029531192324
aF0.3291881058108239
asS's'
p34
(lp35
F248.47571648778606
aF0.44007512901488227
aF0.8662790697674418
aF0.13439732836284557
asS'm'
p36
(lp37
F297.6956604228957
aF0.5057648780559136
aF0.9083969465648855
aF0.327018512322962
asS'g'
p38
I15
sS'w'
p39
(lp40
F2443.6515929428115
aF0.616188609016668
aF0.9935483870967742
aF0.6783783783783783
asa(dp41
S'q'
p42
(lp43
F199.52986219348594
aF0.09851785303459609
aF0.1238121360395057
aF0.43045714196659673
asS's'
p44
(lp45
F247.4620972544917
aF0.4646530046949581
aF0.8187342360281429
aF0.051566826076013095
asS'm'
p46
(lp47
F292.47159477401937
aF0.5107330289573563
aF0.9042906162266399
aF0.24840764331210186
asS'w'
p48
(lp49
F1834.1515634955965
aF0.6233514607164203
aF1.0
aF0.7283372365339578
asS'g'
p50
I22
sa(dp51
S'q'
p52
(lp53
F302.8506727404966
aF0.10090871445682092
aF0.1047862158240479
aF0.2998978885353364
asS's'
p54
(lp55
F236.23993300812543
aF0.4605416100301727
aF0.8455683941050302
aF0.13408395779171123
asS'm'
p56
(lp57
F292.57591486551394
aF0.5024965845853095
aF0.8978102189781022
aF0.26881720430107525
asS'g'
p58
I20
sS'w'
p59
(lp60
F1756.3858682442346
aF0.6275734353695839
aF1.0
aF0.6743630573248407
asa(dp61
S'q'
p62
(lp63
F204.04841308879153
aF0.11262109260373193
aF0.09958086041512937
aF0.33723166038506946
asS's'
p64
(lp65
F248.7630132601594
aF0.4446054106160801
aF0.8604191395848706
aF0.11746728650137742
asS'm'
p66
(lp67
F286.4855864401562
aF0.4966976025354062
aF0.9163486005089059
aF0.3069073783359498
asS'w'
p68
(lp69
F2263.0369347628116
aF0.6207855724549034
aF1.0
aF0.6965662228451297
asS'g'
p70
I21
sa(dp71
S'q'
p72
(lp73
F233.34393293946442
aF0.09306839316981041
aF0.13928135356706783
aF0.334349185444539
asS's'
p74
(lp75
F263.9299090555676
aF0.4518447657094755
aF0.826530612244898
aF0.09108941104668905
asS'm'
p76
(lp77
F320.0913210497147
aF0.4978234421028469
aF0.9069997273718649
aF0.27428724298708246
asS'g'
p78
I21
sS'w'
p79
(lp80
F2043.1465923719916
aF0.6208499514300302
aF1.0
aF0.6994818652849741
asa(dp81
S'q'
p82
(lp83
F170.41219228520717
aF0.10388212354900928
aF0.08079342041606186
aF0.31900698086108425
asS's'
p84
(lp85
F249.37838686741722
aF0.45142715140892054
aF0.8679245283018868
aF0.15548281505728315
asS'm'
p86
(lp87
F292.91269785795294
aF0.5075981830502208
aF0.9137931034482759
aF0.32785802261784797
asS'w'
p88
(lp89
F2206.915701572527
aF0.6390578593878304
aF1.0
aF0.6758064516129032
asS'g'
p90
I21
sa(dp91
S'q'
p92
(lp93
F344.0410149116937
aF0.10514967051144442
aF0.11024761017632434
aF0.3340395004456089
asS's'
p94
(lp95
F251.19258481258265
aF0.45528065864658773
aF0.835974917296203
aF0.1145038167938931
asS'm'
p96
(lp97
F318.0415116543587
aF0.5155733572757559
aF0.9016064257028112
aF0.33133732534930144
asS'g'
p98
I19
sS'w'
p99
(lp100
F2671.7743094053526
aF0.6234066036064607
aF1.0
aF0.6821515892420538
asa(dp101
S'q'
p102
(lp103
F281.2265228922969
aF0.09908479873816978
aF0.10529290853031859
aF0.33300287945422186
asS's'
p104
(lp105
F247.99328884397343
aF0.4494496121110584
aF0.8571428571428571
aF0.14054184808901787
asS'm'
p106
(lp107
F292.86659612012085
aF0.5019665074689241
aF0.9213386847276224
aF0.2963516746411483
asS'w'
p108
(lp109
F1861.6191400974496
aF0.6437056553085213
aF1.0
aF0.6630518977536793
asS'g'
p110
I18
sa(dp111
S'q'
p112
(lp113
F211.07462874994155
aF0.0864110592964018
aF0.11341227018385291
aF0.37287309843470673
asS's'
p114
(lp115
F250.0864800041395
aF0.4672892785012468
aF0.841726618705036
aF0.09883720930232553
asS'm'
p116
(lp117
F294.67285167005934
aF0.509770802755148
aF0.9092748792599143
aF0.2955974842767296
asS'g'
p118
I19
sS'w'
p119
(lp120
F1934.956295198682
aF0.6237102148089608
aF1.0
aF0.6748768472906403
asa(dp121
S'q'
p122
(lp123
F175.36933462284307
aF0.10835158498837089
aF0.1306954436450839
aF0.3278926115464577
asS's'
p124
(lp125
F237.1898653502548
aF0.4300979407203302
aF0.8333333333333334
aF0.08926715176715178
asS'm'
p126
(lp127
F282.140194509194
aF0.4746605877360728
aF0.9090909090909091
aF0.29279999999999995
asS'w'
p128
(lp129
F1519.0556609071434
aF0.617741379022652
aF1.0
aF0.6693766937669376
asS'g'
p130
I19
sa(dp131
S'q'
p132
(lp133
F166.62826567891955
aF0.0939656936071594
aF0.11504841183018955
aF0.3289358925388337
asS's'
p134
(lp135
F237.830070560421
aF0.4481539882623093
aF0.8367565036844034
aF0.08817640692640694
asS'm'
p136
(lp137
F285.4858028345411
aF0.5069805626230112
aF0.9136645962732919
aF0.2736318407960199
asS'g'
p138
I20
sS'w'
p139
(lp140
F1904.047819997136
aF0.6315502718199949
aF1.0
aF0.6930769230769231
asa(dp141
S'q'
p142
(lp143
F156.57305050796862
aF0.0937346983001291
aF0.13218887115205114
aF0.3016982097186701
asS's'
p144
(lp145
F243.64955773829814
aF0.43657774845787417
aF0.8253582986592696
aF0.09599999999999997
asS'm'
p146
(lp147
F286.7458630995991
aF0.48720337762221105
aF0.8929924242424243
aF0.24759615384615385
asS'w'
p148
(lp149
F1906.6990133268102
aF0.6318766083710566
aF1.0
aF0.6749311294765841
asS'g'
p150
I20
sa(dp151
S'q'
p152
(lp153
F206.49225527873332
aF0.11782450993199178
aF0.10265246449456988
aF0.3312009299899752
asS's'
p154
(lp155
F243.16366859111983
aF0.44384248922125913
aF0.850563909774436
aF0.1370032008535609
asS'm'
p156
(lp157
F287.49225032310676
aF0.505504765543751
aF0.9076576576576577
aF0.30580741850880483
asS'g'
p158
I17
sS'w'
p159
(lp160
F2099.128901560629
aF0.6346403984943381
aF1.0
aF0.6910112359550562
asa(dp161
S'q'
p162
(lp163
F256.51916846976906
aF0.10006507053247715
aF0.12059769940204723
aF0.2550235525609683
asS's'
p164
(lp165
F245.1706720506159
aF0.4351285846937374
aF0.8374442586399108
aF0.13207322163258006
asS'm'
p166
(lp167
F290.35529466448617
aF0.4884651476702615
aF0.8998946665296476
aF0.28846153846153844
asS'w'
p168
(lp169
F1750.280233092924
aF0.6269250071528382
aF1.0
aF0.6702898550724637
asS'g'
p170
I16
sa(dp171
S'q'
p172
(lp173
F167.97512288494607
aF0.10694693590405147
aF0.10537762550275598
aF0.2987866132964691
asS's'
p174
(lp175
F262.01346761024047
aF0.42958843353938203
aF0.8503401360544217
aF0.10824856258292787
asS'm'
p176
(lp177
F318.07259537584696
aF0.4796301496288822
aF0.90998140998141
aF0.2549323017408124
asS'g'
p178
I12
sS'w'
p179
(lp180
F2292.9704252313363
aF0.6215395393804314
aF1.0
aF0.6872852233676976
asa(dp181
S'q'
p182
(lp183
F330.4532670621202
aF0.0919917585445178
aF0.10082070835335555
aF0.3144698610108637
asS's'
p184
(lp185
F233.47790683654162
aF0.46055565538589494
aF0.8612576120052196
aF0.1474349008938982
asS'm'
p186
(lp187
F270.12843177972684
aF0.49409108169331833
aF0.9164619164619164
aF0.2952346395742622
asS'w'
p188
(lp189
F2025.500180372591
aF0.6486560587586024
aF0.9959349593495935
aF0.687604690117253
asS'g'
p190
I26
sa(dp191
S'q'
p192
(lp193
F351.44323432251133
aF0.10375792133854272
aF0.12413969464225083
aF0.34159616586949954
asS's'
p194
(lp195
F234.47462062047907
aF0.4430200505483794
aF0.8288012412216235
aF0.09115237214219635
asS'm'
p196
(lp197
F286.71362825298354
aF0.49334805326037223
aF0.9185185185185185
aF0.28627450980392155
asS'g'
p198
I22
sS'w'
p199
(lp200
F1834.0079901351628
aF0.6078968336756625
aF1.0
aF0.6571668063704945
asa.