(lp0
(dp1
S'q'
p2
(lp3
F628.2477176941235
aF1711.1252243583433
aF16.45926160484508
aF13533.36402523504
aF2.4128686327077746
asS's'
p4
(lp5
F196.26562735878295
aF509.9889744211257
aF22.821248513598857
aF1815.7952124466535
aF0.8042895442359249
asS'm'
p6
(lp7
F505.5904865937457
aF1253.8096661750078
aF28.413279382436855
aF6576.968348323974
aF1.876675603217158
asS'w'
p8
(lp9
F997.1108156498794
aF9596.61395498193
aF69.75714529348373
aF587278.3833181323
aF9.115281501340483
asS'g'
p10
I9
sa(dp11
S'q'
p12
(lp13
F638.275343793217
aF1761.6968394611038
aF15.483159605807327
aF12416.935180047763
aF2.680965147453083
asS's'
p14
(lp15
F182.9755846803302
aF618.9671116877696
aF22.989383354119493
aF2480.109727308479
aF0.8042895442359249
asS'm'
p16
(lp17
F462.4351783932723
aF1151.5082288234407
aF29.901536007167234
aF6484.294537421538
aF1.876675603217158
asS'g'
p18
I17
sS'w'
p19
(lp20
F998.4569322759444
aF12371.745871032337
aF70.02250066898611
aF157224.92996105464
aF10.455764075067025
asa(dp21
S'q'
p22
(lp23
F652.8160825793035
aF1962.2493953567514
aF16.69911693051212
aF9850.610749996196
aF2.680965147453083
asS's'
p24
(lp25
F212.58959802907415
aF643.3929123772499
aF23.412382105563594
aF2580.409122459703
aF0.8042895442359249
asS'm'
p26
(lp27
F475.781029377442
aF1408.258784319294
aF30.813497227600124
aF6446.1986460321305
aF1.876675603217158
asS'w'
p28
(lp29
F994.3323689460242
aF11720.283397292673
aF79.48635375401888
aF96481.38319237417
aF9.919571045576408
asS'g'
p30
I17
sa(dp31
S'q'
p32
(lp33
F625.0696268959884
aF1931.6102057275002
aF16.025999099231917
aF12754.3362628685
aF2.949061662198391
asS's'
p34
(lp35
F233.94790791296288
aF652.8585860581667
aF23.896066508461423
aF2877.530271394276
aF0.8042895442359249
asS'm'
p36
(lp37
F537.7963751759535
aF1390.7463692984015
aF30.95924630353173
aF6856.561208475086
aF2.1447721179624666
asS'g'
p38
I16
sS'w'
p39
(lp40
F998.5150892964353
aF11220.734908000237
aF84.75796409615455
aF147790.6982127498
aF9.115281501340483
asa(dp41
S'q'
p42
(lp43
F609.877406190419
aF1687.2510710707418
aF14.113719294025572
aF11171.824851519674
aF2.9490616621983916
asS's'
p44
(lp45
F187.09001061966853
aF605.9164714347537
aF23.838958676016233
aF2367.288165152769
aF0.5361930294906166
asS'm'
p46
(lp47
F445.3675261619355
aF1264.1516906511401
aF29.853229399082885
aF6850.985388258285
aF1.876675603217158
asS'w'
p48
(lp49
F998.1673299904198
aF9627.893021778937
aF72.83609989342783
aF88770.15100158886
aF9.919571045576408
asS'g'
p50
I12
sa(dp51
S'q'
p52
(lp53
F580.2643914278062
aF1959.1937623957897
aF15.827155264773339
aF14481.331986086185
aF2.144772117962466
asS's'
p54
(lp55
F194.80547745861332
aF575.4080957822815
aF22.372755300029006
aF2490.915001564076
aF1.0723860589812333
asS'm'
p56
(lp57
F495.561459941416
aF1303.4915176480833
aF29.847735793989294
aF6789.100714757102
aF2.1447721179624666
asS'g'
p58
I13
sS'w'
p59
(lp60
F998.2665040160516
aF11626.047022799505
aF69.39176750402551
aF114093.04438309744
aF7.774798927613941
asa(dp61
S'q'
p62
(lp63
F620.4873062612971
aF1908.2305266656429
aF16.67414507753924
aF16009.708949933669
aF2.4128686327077746
asS's'
p64
(lp65
F210.5279863928517
aF611.3234423622664
aF22.280598641564357
aF2234.747482044967
aF0.8042895442359249
asS'm'
p66
(lp67
F561.7782125211904
aF1141.9923004183388
aF28.37409928452561
aF6036.473870589644
aF2.1447721179624666
asS'w'
p68
(lp69
F999.1984976832746
aF9936.591102850996
aF82.77001172799643
aF141897.8331678541
aF9.919571045576408
asS'g'
p70
I15
sa(dp71
S'q'
p72
(lp73
F619.6148596836224
aF1431.8382939979365
aF15.43353908507656
aF11435.277790489647
aF3.2171581769436997
asS's'
p74
(lp75
F217.2353101161446
aF626.5973097279426
aF22.6962047490614
aF2392.986682970148
aF0.5361930294906166
asS'm'
p76
(lp77
F486.42849304188434
aF1186.4669090533753
aF29.09341193704427
aF5618.784819370744
aF1.876675603217158
asS'g'
p78
I14
sS'w'
p79
(lp80
F998.5766700196233
aF11397.403314501124
aF84.57625786538196
aF167404.0636541144
aF12.332439678284182
asa(dp81
S'q'
p82
(lp83
F611.2360679359861
aF1833.3787664968295
aF15.539796648486313
aF10696.123497621309
aF2.4128686327077746
asS's'
p84
(lp85
F205.39475257290923
aF551.3139486183271
aF22.55179443629503
aF2738.022193696156
aF0.8042895442359249
asS'm'
p86
(lp87
F484.2865771374946
aF1237.4219068335296
aF30.634273336791534
aF7111.78620261429
aF1.876675603217158
asS'w'
p88
(lp89
F998.1876409281083
aF14364.561962223177
aF90.84948627698363
aF137899.4962431931
aF9.919571045576408
asS'g'
p90
I14
sa(dp91
S'q'
p92
(lp93
F658.7026931106317
aF2261.0294139601206
aF18.885282576595365
aF14646.774849805228
aF2.680965147453083
asS's'
p94
(lp95
F228.44648319835423
aF631.3383641914576
aF23.47966839502076
aF2671.406171647286
aF0.8042895442359249
asS'm'
p96
(lp97
F586.6517781469589
aF1364.173781464587
aF31.634274644934013
aF6985.543892144355
aF1.876675603217158
asS'g'
p98
I21
sS'w'
p99
(lp100
F998.4760374482693
aF12488.245568264176
aF89.30531224807204
aF106438.53736224821
aF10.187667560321715
asa(dp101
S'q'
p102
(lp103
F651.5395776588692
aF1617.388834779349
aF15.909085322725705
aF14968.560116145985
aF2.144772117962466
asS's'
p104
(lp105
F189.40297412228207
aF506.52374676562664
aF22.48258018204538
aF2349.7313481961105
aF1.0723860589812333
asS'm'
p106
(lp107
F425.7997376306495
aF1098.3917384818567
aF29.906395838537872
aF5752.382043219581
aF1.876675603217158
asS'w'
p108
(lp109
F999.8097670682415
aF15506.065447691784
aF72.69822430170039
aF216157.73972962133
aF10.455764075067025
asS'g'
p110
I16
sa(dp111
S'q'
p112
(lp113
F620.4781637962453
aF1541.0493336045192
aF15.742941115346763
aF11876.605207077717
aF2.680965147453083
asS's'
p114
(lp115
F183.2164844806726
aF663.4460757208006
aF22.52613850038745
aF3026.8300470378617
aF0.8042895442359249
asS'm'
p116
(lp117
F485.9439251292395
aF1191.8475544313487
aF31.110918571135556
aF6457.1640933189865
aF1.876675603217158
asS'g'
p118
I8
sS'w'
p119
(lp120
F994.0821309240566
aF9478.158364214081
aF69.65560073176744
aF166739.9399021372
aF12.332439678284182
asa(dp121
S'q'
p122
(lp123
F593.1475642369944
aF2283.7110786342023
aF16.835167735539635
aF18149.06473736981
aF2.1447721179624666
asS's'
p124
(lp125
F264.2341675296567
aF690.8337106115099
aF24.430048225538997
aF2738.6580875138234
aF0.8042895442359249
asS'm'
p126
(lp127
F584.3497007385001
aF1635.3392629464774
aF33.16317893993678
aF7923.84649324908
aF1.6085790884718498
asS'w'
p128
(lp129
F999.8045461469513
aF11272.510335130994
aF75.39750461926793
aF168745.19952601727
aF7.774798927613941
asS'g'
p130
I15
sa(dp131
S'q'
p132
(lp133
F643.9513977967765
aF1524.0995746879717
aF13.82827090848631
aF12436.180191811241
aF2.74798927613941
asS's'
p134
(lp135
F194.782864555758
aF572.811858018701
aF23.278407635753403
aF2792.2693040846257
aF1.0053619302949062
asS'm'
p136
(lp137
F494.29378361116017
aF1154.280341377195
aF29.816648616337943
aF6143.20022119464
aF2.1447721179624666
asS'g'
p138
I14
sS'w'
p139
(lp140
F998.195635883412
aF11747.383621144076
aF67.36600370442802
aF90841.36204676775
aF12.600536193029491
asa(dp141
S'q'
p142
(lp143
F595.5998950080531
aF1906.926959098527
aF16.193915843906066
aF14848.397858029639
aF2.680965147453083
asS's'
p144
(lp145
F229.76263065375224
aF524.851417487793
aF21.83585750933378
aF2616.4888803913846
aF1.0723860589812333
asS'm'
p146
(lp147
F577.0665589789623
aF1354.9363225096881
aF29.476609013441035
aF6802.401922509111
aF2.4128686327077746
asS'w'
p148
(lp149
F997.5428358436703
aF11632.898181989995
aF98.6468457510577
aF106059.0114315753
aF10.187667560321715
asS'g'
p150
I15
sa(dp151
S'q'
p152
(lp153
F619.1651523154517
aF1927.321471858654
aF13.763483901770904
aF13837.356704066504
aF2.949061662198391
asS's'
p154
(lp155
F220.83020292024716
aF603.3251443089205
aF23.473451789925306
aF2679.0936442637876
aF0.8042895442359249
asS'm'
p156
(lp157
F535.0029696728185
aF1326.3857481326265
aF29.880150666073362
aF6314.273561243383
aF1.876675603217158
asS'g'
p158
I12
sS'w'
p159
(lp160
F999.4504000060319
aF10012.323534262043
aF68.52803607652837
aF163423.95870256075
aF9.115281501340483
asa(dp161
S'q'
p162
(lp163
F634.3364642468352
aF1432.002351623869
aF14.47379713760003
aF11794.736147468793
aF1.8766756032171583
asS's'
p164
(lp165
F214.7832584902414
aF613.3296918075378
aF23.184175227259658
aF3307.886671619356
aF1.0723860589812333
asS'm'
p166
(lp167
F495.3766855375619
aF1183.4797730719984
aF28.954478206763937
aF6650.3906522526595
aF1.876675603217158
asS'w'
p168
(lp169
F994.554679135264
aF10212.909804084815
aF66.42668023755144
aF80537.35883664478
aF8.579088471849866
asS'g'
p170
I14
sa(dp171
S'q'
p172
(lp173
F529.3970543560882
aF1818.4290131816467
aF15.772633832273016
aF12679.736112654198
aF2.4128686327077746
asS's'
p174
(lp175
F275.64628190563064
aF652.2913353591687
aF23.000307726812295
aF2837.0008810546015
aF1.0723860589812333
asS'm'
p176
(lp177
F557.0046914040422
aF1392.8912957680095
aF31.415509145408784
aF6883.680193040233
aF2.1447721179624666
asS'g'
p178
I17
sS'w'
p179
(lp180
F997.2408599616656
aF7993.881595510309
aF62.547599204631204
aF101988.83194949033
aF8.310991957104557
asa(dp181
S'q'
p182
(lp183
F526.3616657419129
aF1739.6771635245327
aF13.184221744446717
aF16012.287399163835
aF2.1447721179624666
asS's'
p184
(lp185
F263.0992444340985
aF550.6458982358095
aF24.243177301744204
aF2606.1360300002184
aF0.8042895442359249
asS'm'
p186
(lp187
F533.4484009263961
aF1357.55640998511
aF29.68198431841127
aF7285.867797329693
aF1.876675603217158
asS'w'
p188
(lp189
F999.9837264623043
aF8405.812113377297
aF64.24719258478814
aF150317.27199261478
aF11.796246648793566
asS'g'
p190
I10
sa(dp191
S'q'
p192
(lp193
F509.8367505973802
aF1651.0810207003049
aF15.021909914350267
aF11405.686667870244
aF2.4128686327077746
asS's'
p194
(lp195
F287.16078442850204
aF703.6590318099823
aF24.648811753191133
aF3350.835055143618
aF0.8042895442359249
asS'm'
p196
(lp197
F563.9872708265534
aF1450.3988904002285
aF31.03817816486597
aF7106.588496907132
aF2.1447721179624666
asS'g'
p198
I23
sS'w'
p199
(lp200
F995.0331068712571
aF9518.454534010663
aF80.7618013121082
aF207846.74761840387
aF9.115281501340483
asa.