(lp0
(dp1
S'q'
p2
(lp3
F600.3575888955933
aF1683.0114821227266
aF16.18775320056084
aF11239.768232687997
aF2.9490616621983916
asS's'
p4
(lp5
F184.87089805244057
aF532.2409906635627
aF21.81111757039249
aF2518.489457769947
aF0.5361930294906166
asS'm'
p6
(lp7
F503.4037087531434
aF1159.893450078629
aF30.223512931315938
aF7264.780193075756
aF1.7426273458445039
asS'w'
p8
(lp9
F999.8400858988473
aF6570.448261643203
aF70.78360745973937
aF95273.60829921193
aF9.115281501340483
asS'g'
p10
I19
sa(dp11
S'q'
p12
(lp13
F675.25719488899
aF1962.5197770979048
aF17.789853555001944
aF16231.844673924998
aF3.016085790884718
asS's'
p14
(lp15
F175.3617497880766
aF561.1040054144595
aF22.228772536849096
aF2580.6284459599574
aF0.8042895442359249
asS'm'
p16
(lp17
F546.503634468776
aF1187.0248124109862
aF30.085227117172096
aF6990.354422492123
aF1.876675603217158
asS'g'
p18
I16
sS'w'
p19
(lp20
F997.4263123162157
aF12532.421812969409
aF69.65544239716809
aF154726.64846616742
aF9.115281501340483
asa(dp21
S'q'
p22
(lp23
F611.7068278822969
aF2376.230169284889
aF18.8117346203576
aF17413.641445670954
aF2.9490616621983916
asS's'
p24
(lp25
F230.61383208409114
aF547.4261236979901
aF23.247655114074863
aF2190.1394802547456
aF0.5361930294906166
asS'm'
p26
(lp27
F580.2792899565777
aF1582.4406961930572
aF31.966897970500312
aF6771.994954160455
aF1.876675603217158
asS'w'
p28
(lp29
F993.7646831154971
aF10748.556801028273
aF75.31352186269548
aF150462.93932943256
aF10.99195710455764
asS'g'
p30
I15
sa(dp31
S'q'
p32
(lp33
F570.554593356072
aF1608.4517078148406
aF15.396102490460311
aF10209.675645846919
aF2.74798927613941
asS's'
p34
(lp35
F224.53390788348426
aF583.9017077621257
aF22.197108704059662
aF3116.3831533227235
aF1.0053619302949062
asS'm'
p36
(lp37
F484.6007267274505
aF1207.9800950316298
aF28.656508232638416
aF7187.8730462365
aF2.1447721179624666
asS'g'
p38
I15
sS'w'
p39
(lp40
F991.5806387580803
aF9387.330261843896
aF73.63630702918744
aF105211.30010024057
aF6.970509383378016
asa(dp41
S'q'
p42
(lp43
F543.9236871682971
aF1735.0259175527563
aF14.89245096946901
aF10998.686556240518
aF2.4128686327077746
asS's'
p44
(lp45
F229.1408346741814
aF701.1977712186505
aF23.912989202232467
aF2924.560926905946
aF1.0723860589812333
asS'm'
p46
(lp47
F538.2282068330209
aF1382.2684328584758
aF30.07961576450799
aF7674.484549203531
aF1.876675603217158
asS'w'
p48
(lp49
F996.974361513297
aF8386.27483902423
aF80.91546261708962
aF104010.86214500199
aF10.99195710455764
asS'g'
p50
I17
sa(dp51
S'q'
p52
(lp53
F560.4204331767207
aF1981.2804765295546
aF14.176759602342209
aF18559.80376747978
aF2.680965147453083
asS's'
p54
(lp55
F271.0484627632444
aF724.26039972851
aF24.511961178680885
aF2864.230256074929
aF0.8042895442359249
asS'm'
p56
(lp57
F577.3839790813083
aF1547.3820029585813
aF32.11039219477594
aF8630.17772005283
aF2.278820375335121
asS'g'
p58
I21
sS'w'
p59
(lp60
F999.0470482306484
aF10841.6901366681
aF77.98314869669731
aF63192.656364903225
aF9.383378016085791
asa(dp61
S'q'
p62
(lp63
F584.7141158996924
aF1412.8003953856896
aF17.587239511510695
aF11141.292768019708
aF2.949061662198391
asS's'
p64
(lp65
F195.91371064306963
aF626.2118254781625
aF21.811012701649034
aF2559.9019061358904
aF0.8042895442359249
asS'm'
p66
(lp67
F479.4578147388324
aF1225.034140477172
aF29.963753358068367
aF7714.986219807188
aF1.876675603217158
asS'w'
p68
(lp69
F998.6060994533153
aF6108.647246755451
aF75.72942634883145
aF58858.15659540628
aF9.383378016085791
asS'g'
p70
I17
sa(dp71
S'q'
p72
(lp73
F575.4811670080194
aF1647.673268281811
aF17.720886405020874
aF11061.127631665511
aF2.74798927613941
asS's'
p74
(lp75
F218.2327043402735
aF702.5982214719776
aF22.21437041007071
aF3196.5328561678016
aF0.8042895442359249
asS'm'
p76
(lp77
F538.0814540925298
aF1250.6742142097053
aF29.977618619825172
aF6617.513046058271
aF1.876675603217158
asS'g'
p78
I9
sS'w'
p79
(lp80
F999.7543146112349
aF20869.757721762784
aF91.56358358478306
aF191857.1849688174
aF10.723860589812332
asa(dp81
S'q'
p82
(lp83
F707.3027764274559
aF2013.9171677968432
aF15.04100599348671
aF13443.961767345969
aF2.74798927613941
asS's'
p84
(lp85
F160.66359510647442
aF513.3102298668484
aF22.086061042709556
aF2413.0978795126166
aF0.8042895442359249
asS'm'
p86
(lp87
F564.1028850675679
aF1263.1721016109436
aF29.479171040986408
aF7250.84077928561
aF1.876675603217158
asS'w'
p88
(lp89
F998.8293852624862
aF11386.64073764573
aF66.05793966902363
aF121175.01469780493
aF9.115281501340483
asS'g'
p90
I22
sa(dp91
S'q'
p92
(lp93
F607.5206456763686
aF1994.7655096728063
aF15.694028600565957
aF16295.593109986046
aF3.2171581769437
asS's'
p94
(lp95
F259.1498859254169
aF743.5292026132352
aF22.77538173972878
aF2878.9535053632135
aF1.0723860589812333
asS'm'
p96
(lp97
F571.0439090138444
aF1497.335520817567
aF29.06026835797031
aF9002.797453930612
aF2.278820375335121
asS'g'
p98
I11
sS'w'
p99
(lp100
F998.9352458317209
aF11507.242512797338
aF93.07096235618003
aF161155.82908609117
aF10.723860589812332
asa(dp101
S'q'
p102
(lp103
F577.565494028124
aF1486.2073381698603
aF14.547646643628283
aF10175.212165090834
aF2.7479892761394096
asS's'
p104
(lp105
F216.91319101170876
aF668.6973741314562
aF21.99489352462497
aF2928.2546092691364
aF1.0723860589812333
asS'm'
p106
(lp107
F496.0627203096811
aF1270.4529273292062
aF29.731488094312176
aF7319.848238404575
aF2.1447721179624666
asS'w'
p108
(lp109
F993.2523149989987
aF8538.990382134709
aF59.85269081517795
aF63980.790814078326
aF10.455764075067025
asS'g'
p110
I8
sa(dp111
S'q'
p112
(lp113
F615.4931111423867
aF1663.1294689355313
aF14.914985580375209
aF13882.272024707509
aF2.2117962466487935
asS's'
p114
(lp115
F229.26531380618948
aF623.2663342997638
aF24.230849311474977
aF2536.0163475788822
aF1.0723860589812333
asS'm'
p116
(lp117
F499.7731302864098
aF1168.379163488034
aF30.31195660500587
aF7080.29528004232
aF2.1447721179624666
asS'g'
p118
I14
sS'w'
p119
(lp120
F997.868573889809
aF9524.577589606512
aF69.89742643854746
aF235821.00074700752
aF9.651474530831099
asa(dp121
S'q'
p122
(lp123
F559.0570995626802
aF1868.1750022857627
aF15.494519296471076
aF12972.180150905957
aF2.4128686327077746
asS's'
p124
(lp125
F266.3682229341498
aF682.6521564242335
aF24.144539687810763
aF2275.516962934478
aF0.8042895442359249
asS'm'
p126
(lp127
F546.8935201176374
aF1486.3614446732147
aF31.350354481837186
aF7347.058904751651
aF1.876675603217158
asS'w'
p128
(lp129
F996.4723837654095
aF9607.791762550069
aF80.00536774457538
aF224656.91803982088
aF8.04289544235925
asS'g'
p130
I11
sa(dp131
S'q'
p132
(lp133
F667.1487160306621
aF2793.4794725874863
aF20.86869999756295
aF20332.851188954995
aF3.2171581769436997
asS's'
p134
(lp135
F181.95890815996734
aF530.2977890987488
aF22.35538563301874
aF2608.7975644337957
aF0.8042895442359249
asS'm'
p136
(lp137
F619.9177807074035
aF1299.2127046260734
aF31.909707381125195
aF7752.449306274622
aF1.876675603217158
asS'g'
p138
I20
sS'w'
p139
(lp140
F998.8692553654421
aF12943.203792111457
aF94.03897156467411
aF108796.92640082157
aF12.332439678284182
asa(dp141
S'q'
p142
(lp143
F591.6775884280032
aF2110.582262179294
aF17.27023818557598
aF12237.567386739765
aF2.680965147453083
asS's'
p144
(lp145
F250.04446564406274
aF639.9921850670289
aF24.138760255384778
aF2788.0909250371674
aF0.8042895442359249
asS'm'
p146
(lp147
F557.9966414145431
aF1422.1862185854172
aF30.161405088571712
aF8037.6579317892065
aF2.1447721179624666
asS'w'
p148
(lp149
F998.6010153392474
aF10783.703634346572
aF74.34919125367227
aF80284.81905826274
aF9.651474530831099
asS'g'
p150
I10
sa(dp151
S'q'
p152
(lp153
F600.6584537196363
aF2287.648310699892
aF14.654270279318833
aF14786.880371759635
aF2.144772117962466
asS's'
p154
(lp155
F192.02883045120066
aF487.56713304071695
aF22.85527410873014
aF2221.5719518825495
aF1.0723860589812333
asS'm'
p156
(lp157
F532.3680244927298
aF1239.8153898053176
aF29.99742852146874
aF6634.536226245804
aF1.876675603217158
asS'g'
p158
I17
sS'w'
p159
(lp160
F989.4653081346511
aF7761.444598026882
aF79.29210151829427
aF75268.09524485364
aF12.600536193029491
asa(dp161
S'q'
p162
(lp163
F602.6944891744844
aF2198.1914253824802
aF17.69334111880839
aF15125.742506669954
aF2.144772117962466
asS's'
p164
(lp165
F230.41356593327643
aF584.2296646581839
aF23.287858226712125
aF3029.48177787754
aF1.0723860589812333
asS'm'
p166
(lp167
F616.9425274146349
aF1445.824997676931
aF31.025990805551686
aF7105.297311870574
aF1.876675603217158
asS'w'
p168
(lp169
F994.3155362540994
aF19042.026848608028
aF69.14691501188011
aF167975.1464571328
aF8.310991957104557
asS'g'
p170
I14
sa(dp171
S'q'
p172
(lp173
F608.3464361597962
aF1746.435768328038
aF13.995612246428227
aF15380.404698544273
aF2.949061662198391
asS's'
p174
(lp175
F245.12729022476478
aF668.172435586235
aF24.436478965120404
aF3190.60391237761
aF0.8042895442359249
asS'm'
p176
(lp177
F564.0387019317861
aF1458.1394479046871
aF29.824112925469482
aF7658.7186760167915
aF2.4128686327077746
asS'g'
p178
I12
sS'w'
p179
(lp180
F999.4123201096022
aF9916.434668688891
aF65.23793378359903
aF158811.22749946933
aF11.796246648793566
asa(dp181
S'q'
p182
(lp183
F624.2049627393219
aF2093.663113592027
aF17.860730360065205
aF15584.035987442783
aF2.4128686327077746
asS's'
p184
(lp185
F201.7696807430398
aF680.931562281274
aF23.006440544026724
aF2765.3474973198227
aF0.8042895442359249
asS'm'
p186
(lp187
F556.1398952508004
aF1275.0582732633502
aF31.810252846346984
aF8199.938510478203
aF1.876675603217158
asS'w'
p188
(lp189
F999.5966849948774
aF6724.560328952002
aF69.3529824696013
aF83330.82822623078
aF9.115281501340483
asS'g'
p190
I20
sa(dp191
S'q'
p192
(lp193
F616.760992148058
aF1388.4788496159067
aF16.680895293738356
aF15442.973871758979
aF2.680965147453083
asS's'
p194
(lp195
F205.1426685190797
aF593.2522050813996
aF22.53544109814734
aF2466.425907128061
aF0.8042895442359249
asS'm'
p196
(lp197
F452.66210280402527
aF1101.4369489930598
aF29.558666353547046
aF7677.502231479484
aF1.876675603217158
asS'g'
p198
I21
sS'w'
p199
(lp200
F999.4497163017867
aF17248.13991818725
aF81.36185330387976
aF97110.8769321565
aF9.383378016085791
asa.